target datalayout = "e-m:e-p270:32:32-p271:32:32-p272:64:64-i64:64-i128:128-f80:128-n8:16:32:64-S128"
target triple = "x86_64-pc-linux-gnu"

%struct.Cnf_Dat_t_ = type { ptr, i32, i32, i32, ptr, ptr, ptr, ptr, ptr, ptr }

@stdout = external global ptr, align 8
@.str = private unnamed_addr constant [13 x i8] c"p cnf %d %d\0A\00", align 1
@.str.1 = private unnamed_addr constant [6 x i8] c"%s%d \00", align 1
@.str.2 = private unnamed_addr constant [2 x i8] c"-\00", align 1
@.str.3 = private unnamed_addr constant [1 x i8] zeroinitializer, align 1
@.str.4 = private unnamed_addr constant [2 x i8] c"\0A\00", align 1

; Function Attrs: inlinehint nounwind uwtable
define internal i32 @Abc_Lit2Var(i32 noundef %0) #5 {
  %2 = alloca i32, align 4
  store i32 %0, ptr %2, align 4, !tbaa !20
  %3 = load i32, ptr %2, align 4, !tbaa !20
  %4 = ashr i32 %3, 1
  ret i32 %4
}

; Function Attrs: inlinehint nounwind uwtable
define internal i32 @Abc_LitIsCompl(i32 noundef %0) #5 {
  %2 = alloca i32, align 4
  store i32 %0, ptr %2, align 4, !tbaa !20
  %3 = load i32, ptr %2, align 4, !tbaa !20
  %4 = and i32 %3, 1
  ret i32 %4
}

; Function Attrs: nounwind uwtable
define void @Cnf_DataPrint(ptr noundef %0, i32 noundef %1) #0 {
  %3 = alloca ptr, align 8
  %4 = alloca i32, align 4
  %5 = alloca ptr, align 8
  %6 = alloca ptr, align 8
  %7 = alloca ptr, align 8
  %8 = alloca i32, align 4
  store ptr %0, ptr %3, align 8, !tbaa !32
  store i32 %1, ptr %4, align 4, !tbaa !20
  call void @llvm.lifetime.start.p0(i64 8, ptr %5) #11
  %9 = load ptr, ptr @stdout, align 8, !tbaa !74
  store ptr %9, ptr %5, align 8, !tbaa !74
  call void @llvm.lifetime.start.p0(i64 8, ptr %6) #11
  call void @llvm.lifetime.start.p0(i64 8, ptr %7) #11
  call void @llvm.lifetime.start.p0(i64 4, ptr %8) #11
  %10 = load ptr, ptr %5, align 8, !tbaa !74
  %11 = load ptr, ptr %3, align 8, !tbaa !32
  %12 = getelementptr inbounds nuw %struct.Cnf_Dat_t_, ptr %11, i32 0, i32 1
  %13 = load i32, ptr %12, align 8, !tbaa !56
  %14 = load ptr, ptr %3, align 8, !tbaa !32
  %15 = getelementptr inbounds nuw %struct.Cnf_Dat_t_, ptr %14, i32 0, i32 3
  %16 = load i32, ptr %15, align 8, !tbaa !57
  %17 = call i32 (ptr, ptr, ...) @fprintf(ptr noundef %10, ptr noundef @.str, i32 noundef %13, i32 noundef %16) #11
  store i32 0, ptr %8, align 4, !tbaa !20
  br label %18

18:                                               ; preds = %71, %2
  %19 = load i32, ptr %8, align 4, !tbaa !20
  %20 = load ptr, ptr %3, align 8, !tbaa !32
  %21 = getelementptr inbounds nuw %struct.Cnf_Dat_t_, ptr %20, i32 0, i32 3
  %22 = load i32, ptr %21, align 8, !tbaa !57
  %23 = icmp slt i32 %19, %22
  br i1 %23, label %24, label %74

24:                                               ; preds = %18
  %25 = load ptr, ptr %3, align 8, !tbaa !32
  %26 = getelementptr inbounds nuw %struct.Cnf_Dat_t_, ptr %25, i32 0, i32 4
  %27 = load ptr, ptr %26, align 8, !tbaa !59
  %28 = load i32, ptr %8, align 4, !tbaa !20
  %29 = sext i32 %28 to i64
  %30 = getelementptr inbounds ptr, ptr %27, i64 %29
  %31 = load ptr, ptr %30, align 8, !tbaa !18
  store ptr %31, ptr %6, align 8, !tbaa !18
  %32 = load ptr, ptr %3, align 8, !tbaa !32
  %33 = getelementptr inbounds nuw %struct.Cnf_Dat_t_, ptr %32, i32 0, i32 4
  %34 = load ptr, ptr %33, align 8, !tbaa !59
  %35 = load i32, ptr %8, align 4, !tbaa !20
  %36 = add nsw i32 %35, 1
  %37 = sext i32 %36 to i64
  %38 = getelementptr inbounds ptr, ptr %34, i64 %37
  %39 = load ptr, ptr %38, align 8, !tbaa !18
  store ptr %39, ptr %7, align 8, !tbaa !18
  br label %40

40:                                               ; preds = %65, %24
  %41 = load ptr, ptr %6, align 8, !tbaa !18
  %42 = load ptr, ptr %7, align 8, !tbaa !18
  %43 = icmp ult ptr %41, %42
  br i1 %43, label %44, label %68

44:                                               ; preds = %40
  %45 = load ptr, ptr %5, align 8, !tbaa !74
  %46 = load ptr, ptr %6, align 8, !tbaa !18
  %47 = load i32, ptr %46, align 4, !tbaa !20
  %48 = call i32 @Abc_LitIsCompl(i32 noundef %47)
  %49 = icmp ne i32 %48, 0
  %50 = select i1 %49, ptr @.str.2, ptr @.str.3
  %51 = load i32, ptr %4, align 4, !tbaa !20
  %52 = icmp ne i32 %51, 0
  br i1 %52, label %53, label %57

53:                                               ; preds = %44
  %54 = load ptr, ptr %6, align 8, !tbaa !18
  %55 = load i32, ptr %54, align 4, !tbaa !20
  %56 = call i32 @Abc_Lit2Var(i32 noundef %55)
  br label %62

57:                                               ; preds = %44
  %58 = load ptr, ptr %6, align 8, !tbaa !18
  %59 = load i32, ptr %58, align 4, !tbaa !20
  %60 = call i32 @Abc_Lit2Var(i32 noundef %59)
  %61 = add nsw i32 %60, 1
  br label %62

62:                                               ; preds = %57, %53
  %63 = phi i32 [ %56, %53 ], [ %61, %57 ]
  %64 = call i32 (ptr, ptr, ...) @fprintf(ptr noundef %45, ptr noundef @.str.1, ptr noundef %50, i32 noundef %63) #11
  br label %65

65:                                               ; preds = %62
  %66 = load ptr, ptr %6, align 8, !tbaa !18
  %67 = getelementptr inbounds nuw i32, ptr %66, i32 1
  store ptr %67, ptr %6, align 8, !tbaa !18
  br label %40, !llvm.loop !76

68:                                               ; preds = %40
  %69 = load ptr, ptr %5, align 8, !tbaa !74
  %70 = call i32 (ptr, ptr, ...) @fprintf(ptr noundef %69, ptr noundef @.str.4) #11
  br label %71

71:                                               ; preds = %68
  %72 = load i32, ptr %8, align 4, !tbaa !20
  %73 = add nsw i32 %72, 1
  store i32 %73, ptr %8, align 4, !tbaa !20
  br label %18, !llvm.loop !77

74:                                               ; preds = %18
  %75 = load ptr, ptr %5, align 8, !tbaa !74
  %76 = call i32 (ptr, ptr, ...) @fprintf(ptr noundef %75, ptr noundef @.str.4) #11
  call void @llvm.lifetime.end.p0(i64 4, ptr %8) #11
  call void @llvm.lifetime.end.p0(i64 8, ptr %7) #11
  call void @llvm.lifetime.end.p0(i64 8, ptr %6) #11
  call void @llvm.lifetime.end.p0(i64 8, ptr %5) #11
  ret void
}