; Function Attrs: nofree nounwind uwtable
define void @Cnf_DataPrint(ptr noundef readonly captures(none) %0, i32 noundef %1) local_unnamed_addr #7 {
  %3 = load ptr, ptr @stdout, align 8, !tbaa !65
  %4 = getelementptr inbounds nuw i8, ptr %0, i64 8
  %5 = load i32, ptr %4, align 8, !tbaa !48
  %6 = getelementptr inbounds nuw i8, ptr %0, i64 16
  %7 = load i32, ptr %6, align 8, !tbaa !49
  %8 = tail call i32 (ptr, ptr, ...) @fprintf(ptr noundef %3, ptr noundef nonnull @.str, i32 noundef %5, i32 noundef %7) #16
  %9 = load i32, ptr %6, align 8, !tbaa !49
  %10 = icmp sgt i32 %9, 0
  br i1 %10, label %.lr.ph25, label %._crit_edge26

.lr.ph25:                                         ; preds = %2
  %11 = getelementptr inbounds nuw i8, ptr %0, i64 24
  %.not21 = icmp eq i32 %1, 0
  br i1 %.not21, label %.lr.ph25.split.us, label %.lr.ph25.split

.lr.ph25.split.us:                                ; preds = %.lr.ph25, %._crit_edge.split.us.us
  %indvars.iv29 = phi i64 [ %indvars.iv.next30, %._crit_edge.split.us.us ], [ 0, %.lr.ph25 ]
  %12 = load ptr, ptr %11, align 8, !tbaa !51
  %13 = getelementptr inbounds nuw ptr, ptr %12, i64 %indvars.iv29
  %14 = load ptr, ptr %13, align 8, !tbaa !16
  %indvars.iv.next30 = add nuw nsw i64 %indvars.iv29, 1
  %15 = getelementptr inbounds nuw ptr, ptr %12, i64 %indvars.iv.next30
  %16 = load ptr, ptr %15, align 8, !tbaa !16
  %17 = icmp ult ptr %14, %16
  br i1 %17, label %.lr.ph.us, label %._crit_edge.split.us.us

._crit_edge.split.us.us:                          ; preds = %.lr.ph.us, %.lr.ph25.split.us
  %fputc20.us = tail call i32 @fputc(i32 10, ptr %3)
  %18 = load i32, ptr %6, align 8, !tbaa !49
  %19 = sext i32 %18 to i64
  %20 = icmp slt i64 %indvars.iv.next30, %19
  br i1 %20, label %.lr.ph25.split.us, label %._crit_edge26, !llvm.loop !67

.lr.ph.us:                                        ; preds = %.lr.ph25.split.us, %.lr.ph.us
  %.01922.us.us = phi ptr [ %27, %.lr.ph.us ], [ %14, %.lr.ph25.split.us ]
  %21 = load i32, ptr %.01922.us.us, align 4, !tbaa !28
  %22 = and i32 %21, 1
  %.not.us.us = icmp eq i32 %22, 0
  %23 = select i1 %.not.us.us, ptr @.str.3, ptr @.str.2
  %24 = ashr i32 %21, 1
  %25 = add nsw i32 %24, 1
  %26 = tail call i32 (ptr, ptr, ...) @fprintf(ptr noundef %3, ptr noundef nonnull @.str.1, ptr noundef nonnull %23, i32 noundef %25) #16
  %27 = getelementptr inbounds nuw i8, ptr %.01922.us.us, i64 4
  %28 = icmp ult ptr %27, %16
  br i1 %28, label %.lr.ph.us, label %._crit_edge.split.us.us, !llvm.loop !68

.lr.ph25.split:                                   ; preds = %.lr.ph25, %._crit_edge.split
  %indvars.iv = phi i64 [ %indvars.iv.next, %._crit_edge.split ], [ 0, %.lr.ph25 ]
  %29 = load ptr, ptr %11, align 8, !tbaa !51
  %30 = getelementptr inbounds nuw ptr, ptr %29, i64 %indvars.iv
  %31 = load ptr, ptr %30, align 8, !tbaa !16
  %indvars.iv.next = add nuw nsw i64 %indvars.iv, 1
  %32 = getelementptr inbounds nuw ptr, ptr %29, i64 %indvars.iv.next
  %33 = load ptr, ptr %32, align 8, !tbaa !16
  %34 = icmp ult ptr %31, %33
  br i1 %34, label %.lr.ph, label %._crit_edge.split

.lr.ph:                                           ; preds = %.lr.ph25.split, %.lr.ph
  %.01922 = phi ptr [ %40, %.lr.ph ], [ %31, %.lr.ph25.split ]
  %35 = load i32, ptr %.01922, align 4, !tbaa !28
  %36 = and i32 %35, 1
  %.not = icmp eq i32 %36, 0
  %37 = select i1 %.not, ptr @.str.3, ptr @.str.2
  %38 = ashr i32 %35, 1
  %39 = tail call i32 (ptr, ptr, ...) @fprintf(ptr noundef %3, ptr noundef nonnull @.str.1, ptr noundef nonnull %37, i32 noundef %38) #16
  %40 = getelementptr inbounds nuw i8, ptr %.01922, i64 4
  %41 = icmp ult ptr %40, %33
  br i1 %41, label %.lr.ph, label %._crit_edge.split, !llvm.loop !68

._crit_edge.split:                                ; preds = %.lr.ph, %.lr.ph25.split
  %fputc20 = tail call i32 @fputc(i32 10, ptr %3)
  %42 = load i32, ptr %6, align 8, !tbaa !49
  %43 = sext i32 %42 to i64
  %44 = icmp slt i64 %indvars.iv.next, %43
  br i1 %44, label %.lr.ph25.split, label %._crit_edge26, !llvm.loop !67

._crit_edge26:                                    ; preds = %._crit_edge.split, %._crit_edge.split.us.us, %2
  %fputc = tail call i32 @fputc(i32 10, ptr %3)
  ret void
}